
Memory Configuration

Name             Origin             Length             Attributes
ROM              0x0000000008000000 0x0000000000020000 xr
RAM              0x0000000020000000 0x0000000000005000 xrw
*default*        0x0000000000000000 0xffffffffffffffff

Linker script and memory map


.text           0x0000000008000000      0x29c
                0x0000000008000000                _START_VECTORS_ = .
 *(.vectors*)
 .vectors       0x0000000008000000       0xc8 ./Library/Cortex_M3/Startup.o
                0x0000000008000000                _VECTORS_
                0x00000000080000c8                _END_VECTORS_ = .
                0x00000000080000c8                _START_TEXT_ = .
 *(.text*)
 .text          0x00000000080000c8       0x3c ./MCAL/RCC/RCC_Program.o
                0x00000000080000c8                MCAL_RCC_Enable_Clock
 .text          0x0000000008000104       0xa4 ./MCAL/NVIC/NVIC_Program.o
                0x0000000008000104                MCAL_EXTI_Configure_Line
                0x0000000008000160                MCAL_EXTI_0_ISR_Function
                0x0000000008000184                EXTI0_IRQHandler
 .text          0x00000000080001a8       0x70 ./Library/Cortex_M3/Startup.o
                0x00000000080001a8                DebugMon_Handler
                0x00000000080001a8                _RESET_
                0x00000000080001a8                SysTick_Handler
                0x00000000080001a8                PVD_IRQHandler
                0x00000000080001a8                PendSV_Handler
                0x00000000080001a8                NMI_Handler
                0x00000000080001a8                Bus_Fault_Handler
                0x00000000080001a8                TAMPER_IRQHandler
                0x00000000080001a8                RTC_IRQHandler
                0x00000000080001a8                RCC_IRQHandler
                0x00000000080001a8                SVC_Handler
                0x00000000080001a8                Usage_Fault_Handler
                0x00000000080001a8                WWDG_IRQHandler
                0x00000000080001a8                Memory_Manage_Handler
                0x00000000080001a8                Hard_Fault_Handler
                0x00000000080001a8                FLASH_IRQHandler
 .text          0x0000000008000218       0x84 ./Application/Application.o
                0x0000000008000218                isr
                0x0000000008000234                Intery_Function
 .text          0x000000000800029c        0x0 ./HAL/Main.o
                0x000000000800029c                . = ALIGN (0x4)
                0x000000000800029c                _END_TEXT_ = .
                0x000000000800029c                _START_LMA_DATA_ = .

.glue_7         0x000000000800029c        0x0
 .glue_7        0x000000000800029c        0x0 linker stubs

.glue_7t        0x000000000800029c        0x0
 .glue_7t       0x000000000800029c        0x0 linker stubs

.vfp11_veneer   0x000000000800029c        0x0
 .vfp11_veneer  0x000000000800029c        0x0 linker stubs

.v4_bx          0x000000000800029c        0x0
 .v4_bx         0x000000000800029c        0x0 linker stubs

.iplt           0x000000000800029c        0x0
 .iplt          0x000000000800029c        0x0 ./MCAL/NVIC/NVIC_Program.o

.rel.dyn        0x000000000800029c        0x0
 .rel.iplt      0x000000000800029c        0x0 ./MCAL/NVIC/NVIC_Program.o

.data           0x0000000020000000        0x0 load address 0x000000000800029c
                0x0000000020000000                _START_VMA_DATA_ = .
 *(.data)
 .data          0x0000000020000000        0x0 ./MCAL/RCC/RCC_Program.o
 .data          0x0000000020000000        0x0 ./MCAL/NVIC/NVIC_Program.o
 .data          0x0000000020000000        0x0 ./Library/Cortex_M3/Startup.o
 .data          0x0000000020000000        0x0 ./Application/Application.o
 .data          0x0000000020000000        0x0 ./HAL/Main.o
 *(.rodara)
                0x0000000020000000                . = ALIGN (0x4)
                0x0000000020000000                _END_VMA_DATA_ = .
                0x000000000800029c                _END_LMA_DATA_ = ((_END_VMA_DATA_ - _START_VMA_DATA_) + _START_LMA_DATA_)

.igot.plt       0x0000000020000000        0x0 load address 0x000000000800029c
 .igot.plt      0x0000000020000000        0x0 ./MCAL/NVIC/NVIC_Program.o

.bss            0x0000000020000000        0x4 load address 0x000000000800029c
                0x0000000020000000                _START_BSS_ = .
 *(.bss)
 .bss           0x0000000020000000        0x0 ./MCAL/RCC/RCC_Program.o
 .bss           0x0000000020000000        0x4 ./MCAL/NVIC/NVIC_Program.o
 .bss           0x0000000020000004        0x0 ./Library/Cortex_M3/Startup.o
 .bss           0x0000000020000004        0x0 ./Application/Application.o
 .bss           0x0000000020000004        0x0 ./HAL/Main.o
                0x0000000020000004                . = ALIGN (0x4)
                0x0000000020000004                _END_BSS_ = .
LOAD ./MCAL/RCC/RCC_Program.o
LOAD ./MCAL/NVIC/NVIC_Program.o
LOAD ./Library/Cortex_M3/Startup.o
LOAD ./Application/Application.o
LOAD ./HAL/Main.o
OUTPUT(./Debug/Application.elf elf32-littlearm)
LOAD linker stubs

.debug_info     0x0000000000000000      0xa32
 .debug_info    0x0000000000000000      0x37b ./MCAL/RCC/RCC_Program.o
 .debug_info    0x000000000000037b      0x422 ./MCAL/NVIC/NVIC_Program.o
 .debug_info    0x000000000000079d      0x19a ./Library/Cortex_M3/Startup.o
 .debug_info    0x0000000000000937       0xfb ./Application/Application.o

.debug_abbrev   0x0000000000000000      0x34c
 .debug_abbrev  0x0000000000000000       0xce ./MCAL/RCC/RCC_Program.o
 .debug_abbrev  0x00000000000000ce      0x141 ./MCAL/NVIC/NVIC_Program.o
 .debug_abbrev  0x000000000000020f       0xc1 ./Library/Cortex_M3/Startup.o
 .debug_abbrev  0x00000000000002d0       0x7c ./Application/Application.o

.debug_loc      0x0000000000000000      0x1e8
 .debug_loc     0x0000000000000000       0x5c ./MCAL/RCC/RCC_Program.o
 .debug_loc     0x000000000000005c       0xe4 ./MCAL/NVIC/NVIC_Program.o
 .debug_loc     0x0000000000000140       0x38 ./Library/Cortex_M3/Startup.o
 .debug_loc     0x0000000000000178       0x70 ./Application/Application.o

.debug_aranges  0x0000000000000000       0x80
 .debug_aranges
                0x0000000000000000       0x20 ./MCAL/RCC/RCC_Program.o
 .debug_aranges
                0x0000000000000020       0x20 ./MCAL/NVIC/NVIC_Program.o
 .debug_aranges
                0x0000000000000040       0x20 ./Library/Cortex_M3/Startup.o
 .debug_aranges
                0x0000000000000060       0x20 ./Application/Application.o

.debug_line     0x0000000000000000      0x34a
 .debug_line    0x0000000000000000       0xba ./MCAL/RCC/RCC_Program.o
 .debug_line    0x00000000000000ba       0xc7 ./MCAL/NVIC/NVIC_Program.o
 .debug_line    0x0000000000000181      0x102 ./Library/Cortex_M3/Startup.o
 .debug_line    0x0000000000000283       0xc7 ./Application/Application.o
 .debug_line    0x000000000000034a        0x0 ./HAL/Main.o

.debug_str      0x0000000000000000      0x42c
 .debug_str     0x0000000000000000      0x28c ./MCAL/RCC/RCC_Program.o
                                        0x2ba (size before relaxing)
 .debug_str     0x000000000000028c       0xc6 ./MCAL/NVIC/NVIC_Program.o
                                        0x324 (size before relaxing)
 .debug_str     0x0000000000000352       0xa5 ./Library/Cortex_M3/Startup.o
                                        0x22d (size before relaxing)
 .debug_str     0x00000000000003f7       0x2a ./Application/Application.o
                                        0x1d5 (size before relaxing)
 .debug_str     0x0000000000000421        0xb ./HAL/Main.o
                                         0xcf (size before relaxing)

.comment        0x0000000000000000       0x33
 .comment       0x0000000000000000       0x33 ./MCAL/RCC/RCC_Program.o
                                         0x34 (size before relaxing)
 .comment       0x0000000000000033       0x34 ./MCAL/NVIC/NVIC_Program.o
 .comment       0x0000000000000033       0x34 ./Library/Cortex_M3/Startup.o
 .comment       0x0000000000000033       0x34 ./Application/Application.o
 .comment       0x0000000000000033       0x34 ./HAL/Main.o

.ARM.attributes
                0x0000000000000000       0x2d
 .ARM.attributes
                0x0000000000000000       0x2d ./MCAL/RCC/RCC_Program.o
 .ARM.attributes
                0x000000000000002d       0x2d ./MCAL/NVIC/NVIC_Program.o
 .ARM.attributes
                0x000000000000005a       0x2d ./Library/Cortex_M3/Startup.o
 .ARM.attributes
                0x0000000000000087       0x2d ./Application/Application.o
 .ARM.attributes
                0x00000000000000b4       0x33 ./HAL/Main.o

.debug_frame    0x0000000000000000      0x130
 .debug_frame   0x0000000000000000       0x38 ./MCAL/RCC/RCC_Program.o
 .debug_frame   0x0000000000000038       0x7c ./MCAL/NVIC/NVIC_Program.o
 .debug_frame   0x00000000000000b4       0x30 ./Library/Cortex_M3/Startup.o
 .debug_frame   0x00000000000000e4       0x4c ./Application/Application.o
